target datalayout = "e-m:e-p270:32:32-p271:32:32-p272:64:64-i64:64-i128:128-f80:128-n8:16:32:64-S128"
target triple = "x86_64-pc-linux-gnu"

%struct.Abc_Ntk_t_ = type { i32, i32, ptr, ptr, ptr, ptr, ptr, ptr, ptr, ptr, ptr, ptr, ptr, [11 x i32], i32, i32, i32, i32, ptr, i32, ptr, ptr, i32, i32, i32, double, i32, %struct.Vec_Int_t_, ptr, ptr, ptr, ptr, ptr, float, i32, ptr, ptr, ptr, ptr, ptr, ptr, ptr, ptr, ptr, ptr, ptr, ptr, ptr, ptr, ptr, ptr, ptr, ptr, ptr, ptr, ptr }
%struct.Vec_Int_t_ = type { i32, i32, ptr }

; Function Attrs: nounwind uwtable
define internal i32 @Abc_NtkNodeNum(ptr noundef %0) #0 {
  %2 = alloca ptr, align 8
  store ptr %0, ptr %2, align 8
  %3 = load ptr, ptr %2, align 8
  %4 = getelementptr inbounds %struct.Abc_Ntk_t_, ptr %3, i32 0, i32 13
  %5 = getelementptr inbounds [11 x i32], ptr %4, i64 0, i64 7
  %6 = load i32, ptr %5, align 4
  ret i32 %6
}

; Function Attrs: nounwind uwtable
define ptr @Abc_NtkAddBuffs(ptr noundef %0, i32 noundef %1, i32 noundef %2, i32 noundef %3, i32 noundef %4) #0 {
  %6 = alloca ptr, align 8
  %7 = alloca ptr, align 8
  %8 = alloca i32, align 4
  %9 = alloca i32, align 4
  %10 = alloca i32, align 4
  %11 = alloca i32, align 4
  %12 = alloca ptr, align 8
  %13 = alloca ptr, align 8
  store ptr %0, ptr %7, align 8
  store i32 %1, ptr %8, align 4
  store i32 %2, ptr %9, align 4
  store i32 %3, ptr %10, align 4
  store i32 %4, ptr %11, align 4
  %14 = load i32, ptr %8, align 4
  %15 = icmp ne i32 %14, 0
  br i1 %15, label %16, label %21

16:                                               ; preds = %5
  %17 = load ptr, ptr %7, align 8
  %18 = load i32, ptr %10, align 4
  %19 = load i32, ptr %11, align 4
  %20 = call ptr @Abc_NtkAddBuffsInt(ptr noundef %17, i32 noundef 0, i32 noundef %18, i32 noundef %19)
  store ptr %20, ptr %6, align 8
  br label %49

21:                                               ; preds = %5
  %22 = load i32, ptr %9, align 4
  %23 = icmp ne i32 %22, 0
  br i1 %23, label %24, label %29

24:                                               ; preds = %21
  %25 = load ptr, ptr %7, align 8
  %26 = load i32, ptr %10, align 4
  %27 = load i32, ptr %11, align 4
  %28 = call ptr @Abc_NtkAddBuffsInt(ptr noundef %25, i32 noundef 1, i32 noundef %26, i32 noundef %27)
  store ptr %28, ptr %6, align 8
  br label %49

29:                                               ; preds = %21
  %30 = load ptr, ptr %7, align 8
  %31 = load i32, ptr %10, align 4
  %32 = load i32, ptr %11, align 4
  %33 = call ptr @Abc_NtkAddBuffsInt(ptr noundef %30, i32 noundef 0, i32 noundef %31, i32 noundef %32)
  store ptr %33, ptr %12, align 8
  %34 = load ptr, ptr %7, align 8
  %35 = load i32, ptr %10, align 4
  %36 = load i32, ptr %11, align 4
  %37 = call ptr @Abc_NtkAddBuffsInt(ptr noundef %34, i32 noundef 1, i32 noundef %35, i32 noundef %36)
  store ptr %37, ptr %13, align 8
  %38 = load ptr, ptr %12, align 8
  %39 = call i32 @Abc_NtkNodeNum(ptr noundef %38)
  %40 = load ptr, ptr %13, align 8
  %41 = call i32 @Abc_NtkNodeNum(ptr noundef %40)
  %42 = icmp slt i32 %39, %41
  br i1 %42, label %43, label %46

43:                                               ; preds = %29
  %44 = load ptr, ptr %13, align 8
  call void @Abc_NtkDelete(ptr noundef %44)
  %45 = load ptr, ptr %12, align 8
  store ptr %45, ptr %6, align 8
  br label %49

46:                                               ; preds = %29
  %47 = load ptr, ptr %12, align 8
  call void @Abc_NtkDelete(ptr noundef %47)
  %48 = load ptr, ptr %13, align 8
  store ptr %48, ptr %6, align 8
  br label %49

49:                                               ; preds = %46, %43, %24, %16
  %50 = load ptr, ptr %6, align 8
  ret ptr %50
}