; Function Attrs: nounwind uwtable
define noundef ptr @Abc_NtkAddBuffs(ptr noundef %0, i32 noundef %1, i32 noundef %2, i32 noundef %3, i32 noundef %4) local_unnamed_addr #0 {
  %.not = icmp eq i32 %1, 0
  br i1 %.not, label %8, label %6

6:                                                ; preds = %5
  %7 = tail call ptr @Abc_NtkAddBuffsInt(ptr noundef %0, i32 noundef 0, i32 noundef %3, i32 noundef %4)
  br label %19

8:                                                ; preds = %5
  %.not20 = icmp eq i32 %2, 0
  br i1 %.not20, label %11, label %9

9:                                                ; preds = %8
  %10 = tail call ptr @Abc_NtkAddBuffsInt(ptr noundef %0, i32 noundef 1, i32 noundef %3, i32 noundef %4)
  br label %19

11:                                               ; preds = %8
  %12 = tail call ptr @Abc_NtkAddBuffsInt(ptr noundef %0, i32 noundef 0, i32 noundef %3, i32 noundef %4)
  %13 = tail call ptr @Abc_NtkAddBuffsInt(ptr noundef %0, i32 noundef 1, i32 noundef %3, i32 noundef %4)
  %14 = getelementptr i8, ptr %12, i64 124
  %.val = load i32, ptr %14, align 4
  %15 = getelementptr i8, ptr %13, i64 124
  %.val21 = load i32, ptr %15, align 4
  %16 = icmp slt i32 %.val, %.val21
  br i1 %16, label %17, label %18

17:                                               ; preds = %11
  tail call void @Abc_NtkDelete(ptr noundef nonnull %13) #28
  br label %19

18:                                               ; preds = %11
  tail call void @Abc_NtkDelete(ptr noundef nonnull %12) #28
  br label %19

19:                                               ; preds = %18, %17, %9, %6
  %.0 = phi ptr [ %7, %6 ], [ %10, %9 ], [ %12, %17 ], [ %13, %18 ]
  ret ptr %.0
}